target datalayout = "e-m:e-p270:32:32-p271:32:32-p272:64:64-i64:64-i128:128-f80:128-n8:16:32:64-S128"
target triple = "x86_64-pc-linux-gnu"

@SDL_GetDaysInMonth_REAL.DAYS_IN_MONTH = internal constant [12 x i32] [i32 31, i32 28, i32 31, i32 30, i32 31, i32 30, i32 31, i32 31, i32 30, i32 31, i32 30, i32 31], align 16
@.str = private unnamed_addr constant [41 x i8] c"Month out of range [1-12], requested: %i\00", align 1

; Function Attrs: nounwind uwtable
define hidden i32 @SDL_GetDaysInMonth_REAL(i32 noundef %0, i32 noundef %1) #0 {
  %3 = alloca i32, align 4
  %4 = alloca i32, align 4
  %5 = alloca i32, align 4
  %6 = alloca i32, align 4
  store i32 %0, ptr %4, align 4
  store i32 %1, ptr %5, align 4
  %7 = load i32, ptr %5, align 4
  %8 = icmp slt i32 %7, 1
  br i1 %8, label %12, label %9

9:                                                ; preds = %2
  %10 = load i32, ptr %5, align 4
  %11 = icmp sgt i32 %10, 12
  br i1 %11, label %12, label %15

12:                                               ; preds = %9, %2
  %13 = load i32, ptr %5, align 4
  %14 = call zeroext i1 (ptr, ...) @SDL_SetError_REAL(ptr noundef @.str, i32 noundef %13)
  store i32 -1, ptr %3, align 4
  br label %40

15:                                               ; preds = %9
  call void @llvm.lifetime.start.p0(i64 4, ptr %6) #3
  %16 = load i32, ptr %5, align 4
  %17 = sub nsw i32 %16, 1
  %18 = sext i32 %17 to i64
  %19 = getelementptr inbounds [12 x i32], ptr @SDL_GetDaysInMonth_REAL.DAYS_IN_MONTH, i64 0, i64 %18
  %20 = load i32, ptr %19, align 4
  store i32 %20, ptr %6, align 4
  %21 = load i32, ptr %5, align 4
  %22 = icmp eq i32 %21, 2
  br i1 %22, label %23, label %38

23:                                               ; preds = %15
  %24 = load i32, ptr %4, align 4
  %25 = srem i32 %24, 4
  %26 = icmp ne i32 %25, 0
  br i1 %26, label %38, label %27

27:                                               ; preds = %23
  %28 = load i32, ptr %4, align 4
  %29 = srem i32 %28, 100
  %30 = icmp ne i32 %29, 0
  br i1 %30, label %35, label %31

31:                                               ; preds = %27
  %32 = load i32, ptr %4, align 4
  %33 = srem i32 %32, 400
  %34 = icmp ne i32 %33, 0
  br i1 %34, label %38, label %35

35:                                               ; preds = %31, %27
  %36 = load i32, ptr %6, align 4
  %37 = add nsw i32 %36, 1
  store i32 %37, ptr %6, align 4
  br label %38

38:                                               ; preds = %35, %31, %23, %15
  %39 = load i32, ptr %6, align 4
  store i32 %39, ptr %3, align 4
  call void @llvm.lifetime.end.p0(i64 4, ptr %6) #3
  br label %40

40:                                               ; preds = %38, %12
  %41 = load i32, ptr %3, align 4
  ret i32 %41
}