; Function Attrs: nounwind uwtable
define hidden i32 @SDL_GetDaysInMonth_REAL(i32 noundef %0, i32 noundef %1) local_unnamed_addr #1 {
  %3 = add i32 %1, -13
  %or.cond = icmp ult i32 %3, -12
  br i1 %or.cond, label %4, label %6

4:                                                ; preds = %2
  %5 = tail call zeroext i1 (ptr, ...) @SDL_SetError_REAL(ptr noundef nonnull @.str, i32 noundef %1) #5
  br label %17

6:                                                ; preds = %2
  %7 = add nsw i32 %1, -1
  %8 = zext nneg i32 %7 to i64
  %9 = getelementptr inbounds nuw [12 x i32], ptr @SDL_GetDaysInMonth_REAL.DAYS_IN_MONTH, i64 0, i64 %8
  %10 = load i32, ptr %9, align 4
  %11 = icmp eq i32 %1, 2
  %12 = and i32 %0, 3
  %.not = icmp eq i32 %12, 0
  %or.cond16 = and i1 %11, %.not
  br i1 %or.cond16, label %13, label %17

13:                                               ; preds = %6
  %14 = srem i32 %0, 100
  %.not14 = icmp ne i32 %14, 0
  %15 = srem i32 %0, 400
  %.not15 = icmp eq i32 %15, 0
  %or.cond17 = or i1 %.not14, %.not15
  %16 = zext i1 %or.cond17 to i32
  %spec.select = add nsw i32 %10, %16
  br label %17

17:                                               ; preds = %13, %6, %4
  %.012 = phi i32 [ -1, %4 ], [ %10, %6 ], [ %spec.select, %13 ]
  ret i32 %.012
}